target datalayout = "e-m:e-p270:32:32-p271:32:32-p272:64:64-i64:64-i128:128-f80:128-n8:16:32:64-S128"
target triple = "x86_64-pc-linux-gnu"

%struct.CRYPTO_REF_COUNT = type { i32 }
%struct.cert_st = type { ptr, ptr, ptr, i32, i32, ptr, i64, ptr, i64, ptr, i64, ptr, i64, ptr, ptr, ptr, ptr, %struct.custom_ext_methods, ptr, i32, ptr, ptr, %struct.CRYPTO_REF_COUNT }
%struct.custom_ext_methods = type { ptr, i64 }
%struct.sigalg_lookup_st = type { ptr, i16, i32, i32, i32, i32, i32, i32, i32 }

@.str.2 = private unnamed_addr constant [24 x i8] c"../openssl/ssl/t1_lib.c\00", align 1

; Function Attrs: nounwind uwtable
define i32 @tls1_set_sigalgs(ptr noundef %0, ptr noundef %1, i64 noundef %2, i32 noundef %3) #1 {
  %5 = alloca i32, align 4
  %6 = alloca ptr, align 8
  %7 = alloca ptr, align 8
  %8 = alloca i64, align 8
  %9 = alloca i32, align 4
  %10 = alloca ptr, align 8
  %11 = alloca ptr, align 8
  %12 = alloca i64, align 8
  %13 = alloca i32, align 4
  %14 = alloca i64, align 8
  %15 = alloca ptr, align 8
  %16 = alloca i32, align 4
  %17 = alloca i32, align 4
  store ptr %0, ptr %6, align 8, !tbaa !323
  store ptr %1, ptr %7, align 8, !tbaa !151
  store i64 %2, ptr %8, align 8, !tbaa !3
  store i32 %3, ptr %9, align 4, !tbaa !128
  call void @llvm.lifetime.start.p0(i64 8, ptr %10) #8
  call void @llvm.lifetime.start.p0(i64 8, ptr %11) #8
  call void @llvm.lifetime.start.p0(i64 8, ptr %12) #8
  %18 = load i64, ptr %8, align 8, !tbaa !3
  %19 = and i64 %18, 1
  %20 = icmp ne i64 %19, 0
  br i1 %20, label %21, label %22

21:                                               ; preds = %4
  store i32 0, ptr %5, align 4
  store i32 1, ptr %13, align 4
  br label %108

22:                                               ; preds = %4
  %23 = load i64, ptr %8, align 8, !tbaa !3
  %24 = udiv i64 %23, 2
  %25 = mul i64 %24, 2
  %26 = call noalias ptr @CRYPTO_malloc(i64 noundef %25, ptr noundef @.str.2, i32 noundef 3732)
  store ptr %26, ptr %10, align 8, !tbaa !142
  %27 = icmp eq ptr %26, null
  br i1 %27, label %28, label %29

28:                                               ; preds = %22
  store i32 0, ptr %5, align 4
  store i32 1, ptr %13, align 4
  br label %108

29:                                               ; preds = %22
  store i64 0, ptr %12, align 8, !tbaa !3
  %30 = load ptr, ptr %10, align 8, !tbaa !142
  store ptr %30, ptr %11, align 8, !tbaa !142
  br label %31

31:                                               ; preds = %77, %29
  %32 = load i64, ptr %12, align 8, !tbaa !3
  %33 = load i64, ptr %8, align 8, !tbaa !3
  %34 = icmp ult i64 %32, %33
  br i1 %34, label %35, label %80

35:                                               ; preds = %31
  call void @llvm.lifetime.start.p0(i64 8, ptr %14) #8
  call void @llvm.lifetime.start.p0(i64 8, ptr %15) #8
  call void @llvm.lifetime.start.p0(i64 4, ptr %16) #8
  %36 = load ptr, ptr %7, align 8, !tbaa !151
  %37 = getelementptr inbounds nuw i32, ptr %36, i32 1
  store ptr %37, ptr %7, align 8, !tbaa !151
  %38 = load i32, ptr %36, align 4, !tbaa !128
  store i32 %38, ptr %16, align 4, !tbaa !128
  call void @llvm.lifetime.start.p0(i64 4, ptr %17) #8
  %39 = load ptr, ptr %7, align 8, !tbaa !151
  %40 = getelementptr inbounds nuw i32, ptr %39, i32 1
  store ptr %40, ptr %7, align 8, !tbaa !151
  %41 = load i32, ptr %39, align 4, !tbaa !128
  store i32 %41, ptr %17, align 4, !tbaa !128
  store i64 0, ptr %14, align 8, !tbaa !3
  store ptr @sigalg_lookup_tbl, ptr %15, align 8, !tbaa !201
  br label %42

42:                                               ; preds = %64, %35
  %43 = load i64, ptr %14, align 8, !tbaa !3
  %44 = icmp ult i64 %43, 31
  br i1 %44, label %45, label %69

45:                                               ; preds = %42
  %46 = load ptr, ptr %15, align 8, !tbaa !201
  %47 = getelementptr inbounds nuw %struct.sigalg_lookup_st, ptr %46, i32 0, i32 2
  %48 = load i32, ptr %47, align 4, !tbaa !204
  %49 = load i32, ptr %16, align 4, !tbaa !128
  %50 = icmp eq i32 %48, %49
  br i1 %50, label %51, label %63

51:                                               ; preds = %45
  %52 = load ptr, ptr %15, align 8, !tbaa !201
  %53 = getelementptr inbounds nuw %struct.sigalg_lookup_st, ptr %52, i32 0, i32 4
  %54 = load i32, ptr %53, align 4, !tbaa !209
  %55 = load i32, ptr %17, align 4, !tbaa !128
  %56 = icmp eq i32 %54, %55
  br i1 %56, label %57, label %63

57:                                               ; preds = %51
  %58 = load ptr, ptr %15, align 8, !tbaa !201
  %59 = getelementptr inbounds nuw %struct.sigalg_lookup_st, ptr %58, i32 0, i32 1
  %60 = load i16, ptr %59, align 8, !tbaa !218
  %61 = load ptr, ptr %11, align 8, !tbaa !142
  %62 = getelementptr inbounds nuw i16, ptr %61, i32 1
  store ptr %62, ptr %11, align 8, !tbaa !142
  store i16 %60, ptr %61, align 2, !tbaa !100
  br label %69

63:                                               ; preds = %51, %45
  br label %64

64:                                               ; preds = %63
  %65 = load i64, ptr %14, align 8, !tbaa !3
  %66 = add i64 %65, 1
  store i64 %66, ptr %14, align 8, !tbaa !3
  %67 = load ptr, ptr %15, align 8, !tbaa !201
  %68 = getelementptr inbounds nuw %struct.sigalg_lookup_st, ptr %67, i32 1
  store ptr %68, ptr %15, align 8, !tbaa !201
  br label %42, !llvm.loop !332

69:                                               ; preds = %57, %42
  %70 = load i64, ptr %14, align 8, !tbaa !3
  %71 = icmp eq i64 %70, 31
  br i1 %71, label %72, label %73

72:                                               ; preds = %69
  store i32 8, ptr %13, align 4
  br label %74

73:                                               ; preds = %69
  store i32 0, ptr %13, align 4
  br label %74

74:                                               ; preds = %72, %73
  call void @llvm.lifetime.end.p0(i64 4, ptr %17) #8
  call void @llvm.lifetime.end.p0(i64 4, ptr %16) #8
  call void @llvm.lifetime.end.p0(i64 8, ptr %15) #8
  call void @llvm.lifetime.end.p0(i64 8, ptr %14) #8
  %75 = load i32, ptr %13, align 4
  switch i32 %75, label %108 [
    i32 0, label %76
    i32 8, label %106
  ]

76:                                               ; preds = %74
  br label %77

77:                                               ; preds = %76
  %78 = load i64, ptr %12, align 8, !tbaa !3
  %79 = add i64 %78, 2
  store i64 %79, ptr %12, align 8, !tbaa !3
  br label %31, !llvm.loop !333

80:                                               ; preds = %31
  %81 = load i32, ptr %9, align 4, !tbaa !128
  %82 = icmp ne i32 %81, 0
  br i1 %82, label %83, label %94

83:                                               ; preds = %80
  %84 = load ptr, ptr %6, align 8, !tbaa !323
  %85 = getelementptr inbounds nuw %struct.cert_st, ptr %84, i32 0, i32 11
  %86 = load ptr, ptr %85, align 8, !tbaa !240
  call void @CRYPTO_free(ptr noundef %86, ptr noundef @.str.2, i32 noundef 3753)
  %87 = load ptr, ptr %10, align 8, !tbaa !142
  %88 = load ptr, ptr %6, align 8, !tbaa !323
  %89 = getelementptr inbounds nuw %struct.cert_st, ptr %88, i32 0, i32 11
  store ptr %87, ptr %89, align 8, !tbaa !240
  %90 = load i64, ptr %8, align 8, !tbaa !3
  %91 = udiv i64 %90, 2
  %92 = load ptr, ptr %6, align 8, !tbaa !323
  %93 = getelementptr inbounds nuw %struct.cert_st, ptr %92, i32 0, i32 12
  store i64 %91, ptr %93, align 8, !tbaa !241
  br label %105

94:                                               ; preds = %80
  %95 = load ptr, ptr %6, align 8, !tbaa !323
  %96 = getelementptr inbounds nuw %struct.cert_st, ptr %95, i32 0, i32 9
  %97 = load ptr, ptr %96, align 8, !tbaa !242
  call void @CRYPTO_free(ptr noundef %97, ptr noundef @.str.2, i32 noundef 3757)
  %98 = load ptr, ptr %10, align 8, !tbaa !142
  %99 = load ptr, ptr %6, align 8, !tbaa !323
  %100 = getelementptr inbounds nuw %struct.cert_st, ptr %99, i32 0, i32 9
  store ptr %98, ptr %100, align 8, !tbaa !242
  %101 = load i64, ptr %8, align 8, !tbaa !3
  %102 = udiv i64 %101, 2
  %103 = load ptr, ptr %6, align 8, !tbaa !323
  %104 = getelementptr inbounds nuw %struct.cert_st, ptr %103, i32 0, i32 10
  store i64 %102, ptr %104, align 8, !tbaa !243
  br label %105

105:                                              ; preds = %94, %83
  store i32 1, ptr %5, align 4
  store i32 1, ptr %13, align 4
  br label %108

106:                                              ; preds = %74
  %107 = load ptr, ptr %10, align 8, !tbaa !142
  call void @CRYPTO_free(ptr noundef %107, ptr noundef @.str.2, i32 noundef 3765)
  store i32 0, ptr %5, align 4
  store i32 1, ptr %13, align 4
  br label %108

108:                                              ; preds = %106, %105, %74, %28, %21
  call void @llvm.lifetime.end.p0(i64 8, ptr %12) #8
  call void @llvm.lifetime.end.p0(i64 8, ptr %11) #8
  call void @llvm.lifetime.end.p0(i64 8, ptr %10) #8
  %109 = load i32, ptr %5, align 4
  ret i32 %109
}