; Function Attrs: nounwind uwtable
define range(i32 0, 2) i32 @tls1_set_sigalgs(ptr noundef captures(none) %0, ptr noundef readonly captures(none) %1, i64 noundef %2, i32 noundef %3) local_unnamed_addr #2 {
  %5 = and i64 %2, 1
  %.not = icmp eq i64 %5, 0
  br i1 %.not, label %6, label %40

6:                                                ; preds = %4
  %7 = lshr exact i64 %2, 1
  %8 = tail call noalias ptr @CRYPTO_malloc(i64 noundef %2, ptr noundef nonnull @.str.2, i32 noundef 3732) #14
  %9 = icmp eq ptr %8, null
  br i1 %9, label %40, label %.preheader

.preheader:                                       ; preds = %6
  %.not48 = icmp eq i64 %2, 0
  br i1 %.not48, label %._crit_edge, label %.lr.ph

.lr.ph:                                           ; preds = %.preheader, %25
  %.03147 = phi ptr [ %12, %25 ], [ %1, %.preheader ]
  %.03546 = phi i64 [ %29, %25 ], [ 0, %.preheader ]
  %.03645 = phi ptr [ %28, %25 ], [ %8, %.preheader ]
  %10 = getelementptr inbounds nuw i8, ptr %.03147, i64 4
  %11 = load i32, ptr %.03147, align 4, !tbaa !135
  %12 = getelementptr inbounds nuw i8, ptr %.03147, i64 8
  %13 = load i32, ptr %10, align 4, !tbaa !135
  br label %14

14:                                               ; preds = %.lr.ph, %22
  %.03244 = phi ptr [ @sigalg_lookup_tbl, %.lr.ph ], [ %24, %22 ]
  %.03343 = phi i64 [ 0, %.lr.ph ], [ %23, %22 ]
  %15 = getelementptr inbounds nuw i8, ptr %.03244, i64 12
  %16 = load i32, ptr %15, align 4, !tbaa !178
  %17 = icmp eq i32 %16, %11
  br i1 %17, label %18, label %22

18:                                               ; preds = %14
  %19 = getelementptr inbounds nuw i8, ptr %.03244, i64 20
  %20 = load i32, ptr %19, align 4, !tbaa !183
  %21 = icmp eq i32 %20, %13
  br i1 %21, label %25, label %22

22:                                               ; preds = %14, %18
  %23 = add nuw nsw i64 %.03343, 1
  %24 = getelementptr inbounds nuw i8, ptr %.03244, i64 40
  %exitcond.not = icmp eq i64 %23, 31
  br i1 %exitcond.not, label %39, label %14, !llvm.loop !281

25:                                               ; preds = %18
  %26 = getelementptr inbounds nuw i8, ptr %.03244, i64 8
  %27 = load i16, ptr %26, align 8, !tbaa !187
  store i16 %27, ptr %.03645, align 2, !tbaa !93
  %28 = getelementptr inbounds nuw i8, ptr %.03645, i64 2
  %29 = add i64 %.03546, 2
  %30 = icmp ult i64 %29, %2
  br i1 %30, label %.lr.ph, label %._crit_edge, !llvm.loop !282

._crit_edge:                                      ; preds = %25, %.preheader
  %.not38 = icmp eq i32 %3, 0
  br i1 %.not38, label %35, label %31

31:                                               ; preds = %._crit_edge
  %32 = getelementptr inbounds nuw i8, ptr %0, i64 80
  %33 = load ptr, ptr %32, align 8, !tbaa !207
  tail call void @CRYPTO_free(ptr noundef %33, ptr noundef nonnull @.str.2, i32 noundef 3753) #14
  store ptr %8, ptr %32, align 8, !tbaa !207
  %34 = getelementptr inbounds nuw i8, ptr %0, i64 88
  store i64 %7, ptr %34, align 8, !tbaa !208
  br label %40

35:                                               ; preds = %._crit_edge
  %36 = getelementptr inbounds nuw i8, ptr %0, i64 64
  %37 = load ptr, ptr %36, align 8, !tbaa !209
  tail call void @CRYPTO_free(ptr noundef %37, ptr noundef nonnull @.str.2, i32 noundef 3757) #14
  store ptr %8, ptr %36, align 8, !tbaa !209
  %38 = getelementptr inbounds nuw i8, ptr %0, i64 72
  store i64 %7, ptr %38, align 8, !tbaa !210
  br label %40

39:                                               ; preds = %22
  tail call void @CRYPTO_free(ptr noundef nonnull %8, ptr noundef nonnull @.str.2, i32 noundef 3765) #14
  br label %40

40:                                               ; preds = %31, %35, %6, %4, %39
  %.0 = phi i32 [ 0, %39 ], [ 0, %4 ], [ 0, %6 ], [ 1, %35 ], [ 1, %31 ]
  ret i32 %.0
}